target datalayout = "e-m:e-p270:32:32-p271:32:32-p272:64:64-i64:64-i128:128-f80:128-n8:16:32:64-S128"
target triple = "x86_64-pc-linux-gnu"

%struct.MXFMetadataSet = type { [16 x i8], i64 }
%struct.MXFCryptoContext = type { %struct.MXFMetadataSet, [16 x i8] }

@mxf_crypto_source_container_ul = internal constant [16 x i8] c"\06\0E+4\01\01\01\09\06\01\01\02\02\00\00\00", align 16

; Function Attrs: nounwind uwtable
define internal i32 @mxf_read_cryptographic_context(ptr noundef %0, ptr noundef %1, i32 noundef %2, i32 noundef %3, ptr noundef %4, i64 noundef %5) #0 {
  %7 = alloca i32, align 4
  %8 = alloca ptr, align 8
  %9 = alloca ptr, align 8
  %10 = alloca i32, align 4
  %11 = alloca i32, align 4
  %12 = alloca ptr, align 8
  %13 = alloca i64, align 8
  %14 = alloca ptr, align 8
  %15 = alloca i32, align 4
  store ptr %0, ptr %8, align 8, !tbaa !90
  store ptr %1, ptr %9, align 8, !tbaa !138
  store i32 %2, ptr %10, align 4, !tbaa !47
  store i32 %3, ptr %11, align 4, !tbaa !47
  store ptr %4, ptr %12, align 8, !tbaa !13
  store i64 %5, ptr %13, align 8, !tbaa !37
  call void @llvm.lifetime.start.p0(i64 8, ptr %14) #13
  %16 = load ptr, ptr %8, align 8, !tbaa !90
  store ptr %16, ptr %14, align 8, !tbaa !325
  %17 = load i32, ptr %11, align 4, !tbaa !47
  %18 = icmp ne i32 %17, 16
  br i1 %18, label %19, label %20

19:                                               ; preds = %6
  store i32 -1094995529, ptr %7, align 4
  store i32 1, ptr %15, align 4
  br label %31

20:                                               ; preds = %6
  %21 = load ptr, ptr %12, align 8, !tbaa !13
  %22 = call i32 @memcmp(ptr noundef %21, ptr noundef @mxf_crypto_source_container_ul, i64 noundef 16) #14
  %23 = icmp ne i32 %22, 0
  br i1 %23, label %30, label %24

24:                                               ; preds = %20
  %25 = load ptr, ptr %9, align 8, !tbaa !138
  %26 = load ptr, ptr %14, align 8, !tbaa !325
  %27 = getelementptr inbounds nuw %struct.MXFCryptoContext, ptr %26, i32 0, i32 1
  %28 = getelementptr inbounds [16 x i8], ptr %27, i64 0, i64 0
  %29 = call i32 @avio_read(ptr noundef %25, ptr noundef %28, i32 noundef 16)
  br label %30

30:                                               ; preds = %24, %20
  store i32 0, ptr %7, align 4
  store i32 1, ptr %15, align 4
  br label %31

31:                                               ; preds = %30, %19
  call void @llvm.lifetime.end.p0(i64 8, ptr %14) #13
  %32 = load i32, ptr %7, align 4
  ret i32 %32
}