; Function Attrs: nounwind uwtable
define internal range(i32 -1094995529, 1) i32 @mxf_read_cryptographic_context(ptr noundef %0, ptr noundef %1, i32 %2, i32 noundef %3, ptr noundef readonly captures(none) %4, i64 %5) #1 {
  %.not = icmp eq i32 %3, 16
  br i1 %.not, label %7, label %11

7:                                                ; preds = %6
  %bcmp = tail call i32 @bcmp(ptr noundef nonnull dereferenceable(16) %4, ptr noundef nonnull dereferenceable(16) @mxf_crypto_source_container_ul, i64 16)
  %.not5 = icmp eq i32 %bcmp, 0
  br i1 %.not5, label %8, label %11

8:                                                ; preds = %7
  %9 = getelementptr inbounds nuw i8, ptr %0, i64 24
  %10 = tail call i32 @avio_read(ptr noundef %1, ptr noundef nonnull %9, i32 noundef 16) #15
  br label %11

11:                                               ; preds = %7, %8, %6
  %.0 = phi i32 [ -1094995529, %6 ], [ 0, %8 ], [ 0, %7 ]
  ret i32 %.0
}